(dp1
S'last_word_pos'
p2
I18
sS'indiv_word_arr'
p3
(lp4
I11
aI11
aI11
aI11
aI11
aI11
aI14
aI14
aI14
aI14
aI14
aI14
aI17
aI17
aI17
aI17
aI17
aI17
asS'median_arr'
p5
(lp6
I11
aF12.5
aI14
aF12.5
aI14
aF14
aI14
aF14
aI14
aF14
aI14
aF14
aI14
aF14
aI14
aF14
aI14
aF14
asS'word_storage'
p7
(dp8
S'and'
p9
I6
sS'just'
p10
I6
sS'being'
p11
I6
sS'is'
p12
I18
sS'#kdn'
p13
I6
sS'poverty?'
p14
I6
sS'#smb'
p15
I6
sS'promise'
p16
I6
sS'xia'
p17
I6
sS'end'
p18
I6
sS'for'
p19
I12
sS'how'
p20
I6
sS'to'
p21
I6
sS'finally'
p22
I6
sS'#bigdata'
p23
I18
sS'@lavanyarathnam'
p24
I6
sS'#analytics'
p25
I6
sS'http://bddy.me/1bzukb3'
p26
I6
sS'big'
p27
I12
sS'business.'
p28
I6
sS'answer'
p29
I6
sS'http://ow.ly/ot2uj'
p30
I6
sS'not'
p31
I6
sS'data'
p32
I6
sS'deployed'
p33
I6
sS'on'
p34
I12
sS'interview:'
p35
I6
sS'effective'
p36
I6
sS'of'
p37
I6
sS'wang,'
p38
I6
sS'businesses:'
p39
I6
sS'http://ow.ly/o8gt3'
p40
I6
sS'astrazeneca'
p41
I6
sS'healthcare'
p42
I6
sS'small'
p43
I6
sS'the'
p44
I12
sS'@cxotodayalerts'
p45
I6
ssS'unsorted_indiv_word_arr'
p46
(lp47
I11
aI14
aI17
aI11
aI14
aI17
aI11
aI14
aI17
aI11
aI14
aI17
aI11
aI14
aI17
aI11
aI14
aI17
as.